; Function Attrs: mustprogress uwtable
define void @_ZN6icu_7718RelativeDateFormat13applyPatternsERKNS_13UnicodeStringES3_R10UErrorCode(ptr noundef nonnull align 8 dereferenceable(456) %0, ptr noundef nonnull align 8 dereferenceable(64) %1, ptr noundef nonnull align 8 dereferenceable(64) %2, ptr noundef nonnull readonly align 4 captures(none) dereferenceable(4) %3) unnamed_addr #1 align 2 {
  %5 = load i32, ptr %3, align 4, !tbaa !38
  %6 = icmp slt i32 %5, 1
  br i1 %6, label %7, label %12

7:                                                ; preds = %4
  %8 = getelementptr inbounds nuw i8, ptr %0, i64 56
  %9 = tail call noundef nonnull align 8 dereferenceable(64) ptr @_ZN6icu_7713UnicodeString8copyFromERKS0_a(ptr noundef nonnull align 8 dereferenceable(64) %8, ptr noundef nonnull align 8 dereferenceable(64) %1, i8 noundef signext 0)
  %10 = getelementptr inbounds nuw i8, ptr %0, i64 120
  %11 = tail call noundef nonnull align 8 dereferenceable(64) ptr @_ZN6icu_7713UnicodeString8copyFromERKS0_a(ptr noundef nonnull align 8 dereferenceable(64) %10, ptr noundef nonnull align 8 dereferenceable(64) %2, i8 noundef signext 0)
  br label %12

12:                                               ; preds = %7, %4
  ret void
}